Certificate:
    Data:
        Version: 3 (0x2)
        Serial Number: 1 (0x1)
        Signature Algorithm: md5WithRSAEncryption
        Issuer: C=FR, ST=Radius, L=Somewhere, O=Example Inc./emailAddress=admin@example.com, CN=Example Certificate Authority
        Validity
            Not Before: Sep 14 07:55:36 2012 GMT
            Not After : Sep 14 07:55:36 2013 GMT
        Subject: C=FR, ST=Radius, O=Example Inc., CN=Example Server Certificate/emailAddress=admin@example.com
        Subject Public Key Info:
            Public Key Algorithm: rsaEncryption
            RSA Public Key: (2048 bit)
                Modulus (2048 bit):
                    00:b3:5b:89:fa:93:71:d4:87:37:68:fb:db:99:f4:
                    0c:f2:83:5f:98:25:46:12:bd:1b:0e:eb:4d:0f:1c:
                    a7:38:86:c0:92:44:7e:00:0d:5d:18:fc:57:6b:4e:
                    52:2a:3c:59:17:79:4c:9b:ca:ca:ac:02:7f:76:c8:
                    d1:17:ec:c8:30:fc:98:f9:5c:22:3d:46:29:09:df:
                    d0:47:38:62:16:48:b8:39:af:bf:14:a5:3e:d7:ef:
                    d7:c0:56:19:69:5a:79:71:f9:8a:eb:66:94:b4:e2:
                    c3:e2:37:85:a4:7f:79:ee:74:f9:7c:13:58:13:8f:
                    69:a8:b6:45:22:a3:f7:54:a3:7e:c7:19:28:70:bf:
                    ab:a6:cd:d8:4b:bd:ac:a6:31:60:8f:62:d1:91:2e:
                    0d:6e:b7:3a:89:12:5d:9b:b5:fa:60:67:12:cd:0a:
                    95:3b:8f:f4:c7:81:06:2a:02:ce:5c:6a:1f:75:ea:
                    cd:3c:e8:23:f8:6c:72:ff:b7:79:ad:62:d5:d0:4a:
                    e0:42:69:6b:c5:f9:0d:ef:e7:5d:47:ad:34:8f:61:
                    01:c8:4a:c8:25:e7:dc:93:8d:24:a7:1b:7b:b4:35:
                    9c:e2:22:79:4d:28:17:de:18:fb:de:ff:9e:75:47:
                    f2:13:aa:b9:21:a7:dc:6c:72:83:93:ce:c7:cb:cb:
                    9c:f3
                Exponent: 65537 (0x10001)
        X509v3 extensions:
            X509v3 Extended Key Usage: 
                TLS Web Server Authentication
    Signature Algorithm: md5WithRSAEncryption
        2a:a5:f2:2e:0b:8f:ad:89:41:c1:25:95:3a:7f:88:04:9c:62:
        2b:cf:6a:83:89:12:42:e7:5e:f0:b4:6f:83:14:83:c7:74:f9:
        f8:03:40:b5:bc:b1:bd:ab:03:56:96:5e:9e:06:84:a0:bc:d5:
        28:70:c6:e3:de:3a:fd:bd:d4:c1:4d:be:20:43:7d:c8:72:ff:
        65:9b:2e:a7:ee:f7:f6:df:7b:66:49:74:35:48:b4:76:ce:83:
        03:88:e8:99:99:c5:b5:a3:e0:0d:a4:f7:f5:af:10:a3:4e:fb:
        26:b7:33:33:39:2e:e1:b1:2e:65:90:9e:58:09:10:a2:b5:71:
        ea:aa:a1:39:30:fa:d4:4f:18:f4:18:ed:14:c2:95:1e:4a:52:
        56:d2:ba:59:0f:6f:a8:a0:d5:ba:5c:ba:22:c7:07:62:d2:91:
        d5:c1:b2:da:6b:56:ed:0f:76:3e:f5:27:8b:cb:5f:89:f7:85:
        0e:2b:0a:1c:0b:40:5b:16:ed:61:89:ed:82:56:fb:a5:15:21:
        d9:11:2d:c5:2d:6b:4d:e1:23:2b:e4:aa:9b:fd:21:3a:de:98:
        59:a4:96:c7:9d:f3:23:63:22:8d:e1:af:05:dd:da:33:0c:18:
        e5:69:33:10:01:ac:98:25:5c:f5:07:49:56:19:f5:f7:00:af:
        bf:32:84:be
-----BEGIN CERTIFICATE-----
MIIDojCCAoqgAwIBAgIBATANBgkqhkiG9w0BAQQFADCBkzELMAkGA1UEBhMCRlIx
DzANBgNVBAgTBlJhZGl1czESMBAGA1UEBxMJU29tZXdoZXJlMRUwEwYDVQQKEwxF
eGFtcGxlIEluYy4xIDAeBgkqhkiG9w0BCQEWEWFkbWluQGV4YW1wbGUuY29tMSYw
JAYDVQQDEx1FeGFtcGxlIENlcnRpZmljYXRlIEF1dGhvcml0eTAeFw0xMjA5MTQw
NzU1MzZaFw0xMzA5MTQwNzU1MzZaMHwxCzAJBgNVBAYTAkZSMQ8wDQYDVQQIEwZS
YWRpdXMxFTATBgNVBAoTDEV4YW1wbGUgSW5jLjEjMCEGA1UEAxMaRXhhbXBsZSBT
ZXJ2ZXIgQ2VydGlmaWNhdGUxIDAeBgkqhkiG9w0BCQEWEWFkbWluQGV4YW1wbGUu
Y29tMIIBIjANBgkqhkiG9w0BAQEFAAOCAQ8AMIIBCgKCAQEAs1uJ+pNx1Ic3aPvb
mfQM8oNfmCVGEr0bDutNDxynOIbAkkR+AA1dGPxXa05SKjxZF3lMm8rKrAJ/dsjR
F+zIMPyY+VwiPUYpCd/QRzhiFki4Oa+/FKU+1+/XwFYZaVp5cfmK62aUtOLD4jeF
pH957nT5fBNYE49pqLZFIqP3VKN+xxkocL+rps3YS72spjFgj2LRkS4Nbrc6iRJd
m7X6YGcSzQqVO4/0x4EGKgLOXGofderNPOgj+Gxy/7d5rWLV0ErgQmlrxfkN7+dd
R600j2EByErIJefck40kpxt7tDWc4iJ5TSgX3hj73v+edUfyE6q5IafcbHKDk87H
y8uc8wIDAQABoxcwFTATBgNVHSUEDDAKBggrBgEFBQcDATANBgkqhkiG9w0BAQQF
AAOCAQEAKqXyLguPrYlBwSWVOn+IBJxiK89qg4kSQude8LRvgxSDx3T5+ANAtbyx
vasDVpZengaEoLzVKHDG4946/b3UwU2+IEN9yHL/ZZsup+739t97Zkl0NUi0ds6D
A4jomZnFtaPgDaT39a8Qo077JrczMzku4bEuZZCeWAkQorVx6qqhOTD61E8Y9Bjt
FMKVHkpSVtK6WQ9vqKDVuly6IscHYtKR1cGy2mtW7Q92PvUni8tfifeFDisKHAtA
WxbtYYntglb7pRUh2REtxS1rTeEjK+Sqm/0hOt6YWaSWx53zI2MijeGvBd3aMwwY
5WkzEAGsmCVc9QdJVhn19wCvvzKEvg==
-----END CERTIFICATE-----
